(dp0
S'doneurls'
p1
(lp2
S'http://icollege.inruan.com/'
p3
aVhttp://icollege.inruan.com/download/
p4
aVhttp://icollege.inruan.com/download/3
p5
aVhttp://icollege.inruan.com/download/1
p6
aVhttp://icollege.inruan.com/download/2
p7
aVhttp://icollege.inruan.com/download/4
p8
aVhttp://icollege.inruan.com/union.html
p9
aVhttp://icollege.inruan.com/studentnews/
p10
aVhttp://icollege.inruan.com/studentnews/1
p11
aVhttp://icollege.inruan.com/rulenews/
p12
aVhttp://icollege.inruan.com/rulenews/1
p13
aVhttp://icollege.inruan.com/studynews/
p14
aVhttp://icollege.inruan.com/studynews/1
p15
aVhttp://icollege.inruan.com/researchaward/
p16
aVhttp://icollege.inruan.com/researchproject/
p17
aVhttp://icollege.inruan.com/master_rules/
p18
aVhttp://icollege.inruan.com/master/
p19
aVhttp://icollege.inruan.com/undergraduate/
p20
aVhttp://icollege.inruan.com/specialtieplantform/
p21
aVhttp://icollege.inruan.com/postdoctorsite/1
p22
aVhttp://icollege.inruan.com/teacher/\u5f90\u4e39
p23
aVhttp://icollege.inruan.com/postdoctorsite/
p24
aVhttp://icollege.inruan.com/teacher/\u5f20\u5b66\u6770
p25
aVhttp://icollege.inruan.com/emphasisdegreesite/
p26
aVhttp://icollege.inruan.com/specialtieplantform/4
p27
aVhttp://icollege.inruan.com/emphasisdegreesite/1
p28
aVhttp://icollege.inruan.com/specialtieplantform/3
p29
aVhttp://icollege.inruan.com/emphasisdegreesite/2
p30
aVhttp://icollege.inruan.com/specialtieplantform/2
p31
aVhttp://icollege.inruan.com/degreesite_2/5
p32
aVhttp://icollege.inruan.com/specialtieplantform/1
p33
aVhttp://icollege.inruan.com/degreesite_2/3
p34
aVhttp://icollege.inruan.com/specialtieplantform/5
p35
aVhttp://icollege.inruan.com/degreesite_2/10
p36
aVhttp://icollege.inruan.com/degreesite_1/6
p37
aVhttp://icollege.inruan.com/degreesite_0/21
p38
aVhttp://icollege.inruan.com/teacher/100
p39
aVhttp://icollege.inruan.com/degreesite_2/
p40
aVhttp://icollege.inruan.com/degreesite_1/7
p41
aVhttp://icollege.inruan.com/degreesite_1/
p42
aVhttp://icollege.inruan.com/degreesite_0/
p43
aVhttp://icollege.inruan.com/teacher/102
p44
aVhttp://icollege.inruan.com/department/24
p45
aVhttp://icollege.inruan.com/department/9
p46
aVhttp://icollege.inruan.com/department/11
p47
aVhttp://icollege.inruan.com/department/8
p48
aVhttp://icollege.inruan.com/department/4
p49
aVhttp://icollege.inruan.com/department/7
p50
aVhttp://icollege.inruan.com/department/10
p51
aVhttp://icollege.inruan.com/department/6
p52
aVhttp://icollege.inruan.com/department/5
p53
aVhttp://icollege.inruan.com/teacher/
p54
aVhttp://icollege.inruan.com/teacher/6
p55
aVhttp://icollege.inruan.com/college/
p56
aVhttp://icollege.inruan.com/teacher/351
p57
aVhttp://icollege.inruan.com/teacher/36
p58
aVhttp://icollege.inruan.com/teacher/39
p59
aVhttp://icollege.inruan.com/xadmin/
p60
aVhttp://icollege.inruan.com/teacher/84
p61
aVhttp://icollege.inruan.com/teacher/86
p62
aVhttp://icollege.inruan.com/teacher/88
p63
aVhttp://icollege.inruan.com/teacher/90
p64
aVhttp://icollege.inruan.com/teacher/344
p65
aVhttp://icollege.inruan.com/teacher/346
p66
aVhttp://icollege.inruan.com/teacher/348
p67
aVhttp://icollege.inruan.com/teacher/78
p68
aVhttp://icollege.inruan.com/teacher/80
p69
aVhttp://icollege.inruan.com/teacher/294
p70
aVhttp://icollege.inruan.com/teacher/296
p71
aVhttp://icollege.inruan.com/teacher/298
p72
aVhttp://icollege.inruan.com/teacher/300
p73
aVhttp://icollege.inruan.com/teacher/308
p74
aVhttp://icollege.inruan.com/teacher/310
p75
aVhttp://icollege.inruan.com/teacher/312
p76
aVhttp://icollege.inruan.com/teacher/314
p77
aVhttp://icollege.inruan.com/teacher/316
p78
aVhttp://icollege.inruan.com/teacher/318
p79
aVhttp://icollege.inruan.com/teacher/320
p80
aVhttp://icollege.inruan.com/teacher/322
p81
aVhttp://icollege.inruan.com/teacher/324
p82
aVhttp://icollege.inruan.com/teacher/326
p83
aVhttp://icollege.inruan.com/teacher/338
p84
aVhttp://icollege.inruan.com/teacher/340
p85
aVhttp://icollege.inruan.com/teacher/342
p86
aVhttp://icollege.inruan.com/teacher/74
p87
aVhttp://icollege.inruan.com/teacher/76
p88
aVhttp://icollege.inruan.com/teacher/292
p89
aVhttp://icollege.inruan.com/teacher/302
p90
aVhttp://icollege.inruan.com/teacher/304
p91
aVhttp://icollege.inruan.com/teacher/306
p92
aVhttp://icollege.inruan.com/teacher/328
p93
aVhttp://icollege.inruan.com/teacher/330
p94
aVhttp://icollege.inruan.com/teacher/332
p95
aVhttp://icollege.inruan.com/teacher/334
p96
aVhttp://icollege.inruan.com/teacher/336
p97
aVhttp://icollege.inruan.com/teacher/70
p98
aVhttp://icollege.inruan.com/teacher/82
p99
aVhttp://icollege.inruan.com/teacher/210
p100
aVhttp://icollege.inruan.com/teacher/226
p101
aVhttp://icollege.inruan.com/teacher/256
p102
aVhttp://icollege.inruan.com/teacher/258
p103
aVhttp://icollege.inruan.com/teacher/350
p104
aVhttp://icollege.inruan.com/teacher/62
p105
aVhttp://icollege.inruan.com/teacher/64
p106
aVhttp://icollege.inruan.com/teacher/66
p107
aVhttp://icollege.inruan.com/teacher/68
p108
aVhttp://icollege.inruan.com/teacher/204
p109
aVhttp://icollege.inruan.com/teacher/206
p110
aVhttp://icollege.inruan.com/teacher/208
p111
aVhttp://icollege.inruan.com/teacher/212
p112
aVhttp://icollege.inruan.com/teacher/214
p113
aVhttp://icollege.inruan.com/teacher/216
p114
aVhttp://icollege.inruan.com/teacher/218
p115
aVhttp://icollege.inruan.com/teacher/220
p116
aVhttp://icollege.inruan.com/teacher/222
p117
aVhttp://icollege.inruan.com/teacher/224
p118
aVhttp://icollege.inruan.com/teacher/228
p119
aVhttp://icollege.inruan.com/teacher/230
p120
aVhttp://icollege.inruan.com/teacher/232
p121
aVhttp://icollege.inruan.com/teacher/234
p122
aVhttp://icollege.inruan.com/teacher/236
p123
aVhttp://icollege.inruan.com/teacher/238
p124
aVhttp://icollege.inruan.com/teacher/240
p125
aVhttp://icollege.inruan.com/teacher/242
p126
aVhttp://icollege.inruan.com/teacher/244
p127
aVhttp://icollege.inruan.com/teacher/246
p128
aVhttp://icollege.inruan.com/teacher/248
p129
aVhttp://icollege.inruan.com/teacher/250
p130
aVhttp://icollege.inruan.com/teacher/252
p131
aVhttp://icollege.inruan.com/teacher/254
p132
aVhttp://icollege.inruan.com/teacher/28
p133
aVhttp://icollege.inruan.com/teacher/29
p134
aVhttp://icollege.inruan.com/teacher/278
p135
aVhttp://icollege.inruan.com/teacher/282
p136
aVhttp://icollege.inruan.com/teacher/284
p137
aVhttp://icollege.inruan.com/teacher/290
p138
aVhttp://icollege.inruan.com/teacher/72
p139
aVhttp://icollege.inruan.com/teacher/262
p140
aVhttp://icollege.inruan.com/teacher/266
p141
aVhttp://icollege.inruan.com/teacher/268
p142
aVhttp://icollege.inruan.com/teacher/270
p143
aVhttp://icollege.inruan.com/teacher/272
p144
aVhttp://icollege.inruan.com/teacher/274
p145
aVhttp://icollege.inruan.com/teacher/286
p146
aVhttp://icollege.inruan.com/teacher/288
p147
aVhttp://icollege.inruan.com/teacher/60
p148
aVhttp://icollege.inruan.com/teacher/142
p149
aVhttp://icollege.inruan.com/teacher/198
p150
aVhttp://icollege.inruan.com/teacher/200
p151
aVhttp://icollege.inruan.com/teacher/202
p152
aVhttp://icollege.inruan.com/teacher/11
p153
aVhttp://icollege.inruan.com/teacher/20
p154
aVhttp://icollege.inruan.com/teacher/21
p155
aVhttp://icollege.inruan.com/teacher/22
p156
aVhttp://icollege.inruan.com/teacher/23
p157
aVhttp://icollege.inruan.com/teacher/24
p158
aVhttp://icollege.inruan.com/teacher/25
p159
aVhttp://icollege.inruan.com/teacher/26
p160
aVhttp://icollege.inruan.com/teacher/27
p161
aVhttp://icollege.inruan.com/teacher/50
p162
aVhttp://icollege.inruan.com/teacher/52
p163
aVhttp://icollege.inruan.com/teacher/56
p164
aVhttp://icollege.inruan.com/teacher/134
p165
aVhttp://icollege.inruan.com/teacher/140
p166
aVhttp://icollege.inruan.com/teacher/144
p167
aVhttp://icollege.inruan.com/teacher/146
p168
aVhttp://icollege.inruan.com/teacher/148
p169
aVhttp://icollege.inruan.com/teacher/150
p170
aVhttp://icollege.inruan.com/teacher/152
p171
aVhttp://icollege.inruan.com/teacher/154
p172
aVhttp://icollege.inruan.com/teacher/158
p173
aVhttp://icollege.inruan.com/teacher/160
p174
aVhttp://icollege.inruan.com/teacher/162
p175
aVhttp://icollege.inruan.com/teacher/164
p176
aVhttp://icollege.inruan.com/teacher/166
p177
aVhttp://icollege.inruan.com/teacher/168
p178
aVhttp://icollege.inruan.com/teacher/170
p179
aVhttp://icollege.inruan.com/teacher/172
p180
aVhttp://icollege.inruan.com/teacher/174
p181
aVhttp://icollege.inruan.com/teacher/176
p182
aVhttp://icollege.inruan.com/teacher/178
p183
aVhttp://icollege.inruan.com/teacher/180
p184
aVhttp://icollege.inruan.com/teacher/182
p185
aVhttp://icollege.inruan.com/teacher/184
p186
aVhttp://icollege.inruan.com/teacher/186
p187
aVhttp://icollege.inruan.com/teacher/188
p188
aVhttp://icollege.inruan.com/teacher/190
p189
aVhttp://icollege.inruan.com/teacher/192
p190
aVhttp://icollege.inruan.com/teacher/194
p191
aVhttp://icollege.inruan.com/teacher/196
p192
aVhttp://icollege.inruan.com/teacher/260
p193
aVhttp://icollege.inruan.com/teacher/5
p194
aVhttp://icollege.inruan.com/teacher/12
p195
aVhttp://icollege.inruan.com/teacher/13
p196
aVhttp://icollege.inruan.com/teacher/14
p197
aVhttp://icollege.inruan.com/teacher/16
p198
aVhttp://icollege.inruan.com/teacher/17
p199
aVhttp://icollege.inruan.com/teacher/18
p200
aVhttp://icollege.inruan.com/teacher/19
p201
aVhttp://icollege.inruan.com/teacher/30
p202
aVhttp://icollege.inruan.com/teacher/31
p203
aVhttp://icollege.inruan.com/teacher/42
p204
aVhttp://icollege.inruan.com/teacher/44
p205
aVhttp://icollege.inruan.com/teacher/46
p206
aVhttp://icollege.inruan.com/teacher/48
p207
aVhttp://icollege.inruan.com/teacher/94
p208
aVhttp://icollege.inruan.com/teacher/96
p209
aVhttp://icollege.inruan.com/teacher/104
p210
aVhttp://icollege.inruan.com/teacher/106
p211
aVhttp://icollege.inruan.com/teacher/108
p212
aVhttp://icollege.inruan.com/teacher/112
p213
aVhttp://icollege.inruan.com/teacher/114
p214
aVhttp://icollege.inruan.com/teacher/116
p215
aVhttp://icollege.inruan.com/teacher/118
p216
aVhttp://icollege.inruan.com/teacher/120
p217
aVhttp://icollege.inruan.com/teacher/122
p218
aVhttp://icollege.inruan.com/teacher/126
p219
aVhttp://icollege.inruan.com/teacher/128
p220
aVhttp://icollege.inruan.com/teacher/130
p221
aVhttp://icollege.inruan.com/teacher/132
p222
aVhttp://icollege.inruan.com/teacher/32
p223
aVhttp://icollege.inruan.com/teacher/15
p224
aVhttp://icollege.inruan.com/degreesite_1/8
p225
aVhttp://icollege.inruan.com/degreesite_1/1
p226
aVhttp://icollege.inruan.com/degreesite_1/4
p227
aVhttp://icollege.inruan.com/degreesite_1/2
p228
aVhttp://icollege.inruan.com/teacher/\u738b\u4e3d\u73cd
p229
aVhttp://icollege.inruan.com/teacher/\u5cb3\u6606
p230
aVhttp://icollege.inruan.com/teacher/\u5f20\u6986\u950b
p231
aVhttp://icollege.inruan.com/teacher/\u9ec4\u94ed
p232
aVhttp://icollege.inruan.com/teacher/\u59da\u7ecd\u6587
p233
aVhttp://icollege.inruan.com/video/
p234
aVhttp://icollege.inruan.com/video/1
p235
aVhttp://icollege.inruan.com/app/
p236
aVhttp://icollege.inruan.com/app/1
p237
aVhttp://icollege.inruan.com/activitys/
p238
aVhttp://icollege.inruan.com/activitys/1
p239
aVhttp://icollege.inruan.com/activitys/2
p240
aVhttp://icollege.inruan.com/annunciations/2
p241
aVhttp://icollege.inruan.com/annunciations/7
p242
aVhttp://icollege.inruan.com/annunciations/8
p243
aVhttp://icollege.inruan.com/annunciations/9
p244
aVhttp://icollege.inruan.com/annunciations/10
p245
aVhttp://icollege.inruan.com/annunciations/
p246
aVhttp://icollege.inruan.com/annunciations/4
p247
aVhttp://icollege.inruan.com/annunciations/5
p248
aVhttp://icollege.inruan.com/annunciations/6
p249
aVhttp://icollege.inruan.com/news/1
p250
aVhttp://icollege.inruan.com/news/5
p251
aVhttp://icollege.inruan.com/news/6
p252
aVhttp://icollege.inruan.com/news/2
p253
aVhttp://icollege.inruan.com/news/3
p254
aVhttp://icollege.inruan.com/news/4
p255
aVhttp://icollege.inruan.com/news/
p256
aVhttp://icollege.inruan.com/news/7
p257
asS'rooturl'
p258
Vhttp://www.baidu.com
p259
sS'urls'
p260
(lp261
s.